; Function Attrs: mustprogress nounwind uwtable
define dso_local void @_ZN4Luau20NormalizedStringType13resetToStringEv(ptr noundef nonnull align 8 dereferenceable(56) initializes((0, 1)) %0) local_unnamed_addr #6 align 2 personality ptr @__gxx_personality_v0 {
  store i8 1, ptr %0, align 8, !tbaa !55
  %2 = getelementptr inbounds nuw i8, ptr %0, i64 8
  %3 = getelementptr inbounds nuw i8, ptr %0, i64 24
  %4 = load ptr, ptr %3, align 8, !tbaa !67
  invoke void @_ZNSt8_Rb_treeINSt7__cxx1112basic_stringIcSt11char_traitsIcESaIcEEESt4pairIKS5_PKN4Luau4TypeEESt10_Select1stISC_ESt4lessIS5_ESaISC_EE8_M_eraseEPSt13_Rb_tree_nodeISC_E(ptr noundef nonnull align 8 dereferenceable(48) %2, ptr noundef %4)
          to label %_ZNSt3mapINSt7__cxx1112basic_stringIcSt11char_traitsIcESaIcEEEPKN4Luau4TypeESt4lessIS5_ESaISt4pairIKS5_S9_EEE5clearEv.exit unwind label %5

5:                                                ; preds = %1
  %6 = landingpad { ptr, i32 }
          catch ptr null
  %7 = extractvalue { ptr, i32 } %6, 0
  tail call void @__clang_call_terminate(ptr %7) #30
  unreachable

_ZNSt3mapINSt7__cxx1112basic_stringIcSt11char_traitsIcESaIcEEEPKN4Luau4TypeESt4lessIS5_ESaISt4pairIKS5_S9_EEE5clearEv.exit: ; preds = %1
  %8 = getelementptr inbounds nuw i8, ptr %0, i64 16
  store ptr null, ptr %3, align 8, !tbaa !67
  %9 = getelementptr inbounds nuw i8, ptr %0, i64 32
  store ptr %8, ptr %9, align 8, !tbaa !68
  %10 = getelementptr inbounds nuw i8, ptr %0, i64 40
  store ptr %8, ptr %10, align 8, !tbaa !69
  %11 = getelementptr inbounds nuw i8, ptr %0, i64 48
  store i64 0, ptr %11, align 8, !tbaa !70
  ret void
}